target datalayout = "e-m:e-p270:32:32-p271:32:32-p272:64:64-i64:64-i128:128-f80:128-n8:16:32:64-S128"
target triple = "x86_64-pc-linux-gnu"

; Function Attrs: nounwind uwtable
define internal void @ps_stereo_interpolate_ipdopd_c(ptr noundef %0, ptr noundef %1, ptr noundef %2, ptr noundef %3, i32 noundef %4) #1 {
  %6 = alloca ptr, align 8
  %7 = alloca ptr, align 8
  %8 = alloca ptr, align 8
  %9 = alloca ptr, align 8
  %10 = alloca i32, align 4
  %11 = alloca float, align 4
  %12 = alloca float, align 4
  %13 = alloca float, align 4
  %14 = alloca float, align 4
  %15 = alloca float, align 4
  %16 = alloca float, align 4
  %17 = alloca float, align 4
  %18 = alloca float, align 4
  %19 = alloca float, align 4
  %20 = alloca float, align 4
  %21 = alloca float, align 4
  %22 = alloca float, align 4
  %23 = alloca float, align 4
  %24 = alloca float, align 4
  %25 = alloca float, align 4
  %26 = alloca float, align 4
  %27 = alloca i32, align 4
  %28 = alloca float, align 4
  %29 = alloca float, align 4
  %30 = alloca float, align 4
  %31 = alloca float, align 4
  store ptr %0, ptr %6, align 8, !tbaa !17
  store ptr %1, ptr %7, align 8, !tbaa !17
  store ptr %2, ptr %8, align 8, !tbaa !17
  store ptr %3, ptr %9, align 8, !tbaa !17
  store i32 %4, ptr %10, align 4, !tbaa !19
  call void @llvm.lifetime.start.p0(i64 4, ptr %11) #4
  %32 = load ptr, ptr %8, align 8, !tbaa !17
  %33 = getelementptr inbounds [4 x float], ptr %32, i64 0
  %34 = getelementptr inbounds [4 x float], ptr %33, i64 0, i64 0
  %35 = load float, ptr %34, align 4, !tbaa !21
  store float %35, ptr %11, align 4, !tbaa !21
  call void @llvm.lifetime.start.p0(i64 4, ptr %12) #4
  %36 = load ptr, ptr %8, align 8, !tbaa !17
  %37 = getelementptr inbounds [4 x float], ptr %36, i64 1
  %38 = getelementptr inbounds [4 x float], ptr %37, i64 0, i64 0
  %39 = load float, ptr %38, align 4, !tbaa !21
  store float %39, ptr %12, align 4, !tbaa !21
  call void @llvm.lifetime.start.p0(i64 4, ptr %13) #4
  %40 = load ptr, ptr %8, align 8, !tbaa !17
  %41 = getelementptr inbounds [4 x float], ptr %40, i64 0
  %42 = getelementptr inbounds [4 x float], ptr %41, i64 0, i64 1
  %43 = load float, ptr %42, align 4, !tbaa !21
  store float %43, ptr %13, align 4, !tbaa !21
  call void @llvm.lifetime.start.p0(i64 4, ptr %14) #4
  %44 = load ptr, ptr %8, align 8, !tbaa !17
  %45 = getelementptr inbounds [4 x float], ptr %44, i64 1
  %46 = getelementptr inbounds [4 x float], ptr %45, i64 0, i64 1
  %47 = load float, ptr %46, align 4, !tbaa !21
  store float %47, ptr %14, align 4, !tbaa !21
  call void @llvm.lifetime.start.p0(i64 4, ptr %15) #4
  %48 = load ptr, ptr %8, align 8, !tbaa !17
  %49 = getelementptr inbounds [4 x float], ptr %48, i64 0
  %50 = getelementptr inbounds [4 x float], ptr %49, i64 0, i64 2
  %51 = load float, ptr %50, align 4, !tbaa !21
  store float %51, ptr %15, align 4, !tbaa !21
  call void @llvm.lifetime.start.p0(i64 4, ptr %16) #4
  %52 = load ptr, ptr %8, align 8, !tbaa !17
  %53 = getelementptr inbounds [4 x float], ptr %52, i64 1
  %54 = getelementptr inbounds [4 x float], ptr %53, i64 0, i64 2
  %55 = load float, ptr %54, align 4, !tbaa !21
  store float %55, ptr %16, align 4, !tbaa !21
  call void @llvm.lifetime.start.p0(i64 4, ptr %17) #4
  %56 = load ptr, ptr %8, align 8, !tbaa !17
  %57 = getelementptr inbounds [4 x float], ptr %56, i64 0
  %58 = getelementptr inbounds [4 x float], ptr %57, i64 0, i64 3
  %59 = load float, ptr %58, align 4, !tbaa !21
  store float %59, ptr %17, align 4, !tbaa !21
  call void @llvm.lifetime.start.p0(i64 4, ptr %18) #4
  %60 = load ptr, ptr %8, align 8, !tbaa !17
  %61 = getelementptr inbounds [4 x float], ptr %60, i64 1
  %62 = getelementptr inbounds [4 x float], ptr %61, i64 0, i64 3
  %63 = load float, ptr %62, align 4, !tbaa !21
  store float %63, ptr %18, align 4, !tbaa !21
  call void @llvm.lifetime.start.p0(i64 4, ptr %19) #4
  %64 = load ptr, ptr %9, align 8, !tbaa !17
  %65 = getelementptr inbounds [4 x float], ptr %64, i64 0
  %66 = getelementptr inbounds [4 x float], ptr %65, i64 0, i64 0
  %67 = load float, ptr %66, align 4, !tbaa !21
  store float %67, ptr %19, align 4, !tbaa !21
  call void @llvm.lifetime.start.p0(i64 4, ptr %20) #4
  %68 = load ptr, ptr %9, align 8, !tbaa !17
  %69 = getelementptr inbounds [4 x float], ptr %68, i64 1
  %70 = getelementptr inbounds [4 x float], ptr %69, i64 0, i64 0
  %71 = load float, ptr %70, align 4, !tbaa !21
  store float %71, ptr %20, align 4, !tbaa !21
  call void @llvm.lifetime.start.p0(i64 4, ptr %21) #4
  %72 = load ptr, ptr %9, align 8, !tbaa !17
  %73 = getelementptr inbounds [4 x float], ptr %72, i64 0
  %74 = getelementptr inbounds [4 x float], ptr %73, i64 0, i64 1
  %75 = load float, ptr %74, align 4, !tbaa !21
  store float %75, ptr %21, align 4, !tbaa !21
  call void @llvm.lifetime.start.p0(i64 4, ptr %22) #4
  %76 = load ptr, ptr %9, align 8, !tbaa !17
  %77 = getelementptr inbounds [4 x float], ptr %76, i64 1
  %78 = getelementptr inbounds [4 x float], ptr %77, i64 0, i64 1
  %79 = load float, ptr %78, align 4, !tbaa !21
  store float %79, ptr %22, align 4, !tbaa !21
  call void @llvm.lifetime.start.p0(i64 4, ptr %23) #4
  %80 = load ptr, ptr %9, align 8, !tbaa !17
  %81 = getelementptr inbounds [4 x float], ptr %80, i64 0
  %82 = getelementptr inbounds [4 x float], ptr %81, i64 0, i64 2
  %83 = load float, ptr %82, align 4, !tbaa !21
  store float %83, ptr %23, align 4, !tbaa !21
  call void @llvm.lifetime.start.p0(i64 4, ptr %24) #4
  %84 = load ptr, ptr %9, align 8, !tbaa !17
  %85 = getelementptr inbounds [4 x float], ptr %84, i64 1
  %86 = getelementptr inbounds [4 x float], ptr %85, i64 0, i64 2
  %87 = load float, ptr %86, align 4, !tbaa !21
  store float %87, ptr %24, align 4, !tbaa !21
  call void @llvm.lifetime.start.p0(i64 4, ptr %25) #4
  %88 = load ptr, ptr %9, align 8, !tbaa !17
  %89 = getelementptr inbounds [4 x float], ptr %88, i64 0
  %90 = getelementptr inbounds [4 x float], ptr %89, i64 0, i64 3
  %91 = load float, ptr %90, align 4, !tbaa !21
  store float %91, ptr %25, align 4, !tbaa !21
  call void @llvm.lifetime.start.p0(i64 4, ptr %26) #4
  %92 = load ptr, ptr %9, align 8, !tbaa !17
  %93 = getelementptr inbounds [4 x float], ptr %92, i64 1
  %94 = getelementptr inbounds [4 x float], ptr %93, i64 0, i64 3
  %95 = load float, ptr %94, align 4, !tbaa !21
  store float %95, ptr %26, align 4, !tbaa !21
  call void @llvm.lifetime.start.p0(i64 4, ptr %27) #4
  store i32 0, ptr %27, align 4, !tbaa !19
  br label %96

96:                                               ; preds = %221, %5
  %97 = load i32, ptr %27, align 4, !tbaa !19
  %98 = load i32, ptr %10, align 4, !tbaa !19
  %99 = icmp slt i32 %97, %98
  br i1 %99, label %100, label %224

100:                                              ; preds = %96
  call void @llvm.lifetime.start.p0(i64 4, ptr %28) #4
  %101 = load ptr, ptr %6, align 8, !tbaa !17
  %102 = load i32, ptr %27, align 4, !tbaa !19
  %103 = sext i32 %102 to i64
  %104 = getelementptr inbounds [2 x float], ptr %101, i64 %103
  %105 = getelementptr inbounds [2 x float], ptr %104, i64 0, i64 0
  %106 = load float, ptr %105, align 4, !tbaa !21
  store float %106, ptr %28, align 4, !tbaa !21
  call void @llvm.lifetime.start.p0(i64 4, ptr %29) #4
  %107 = load ptr, ptr %6, align 8, !tbaa !17
  %108 = load i32, ptr %27, align 4, !tbaa !19
  %109 = sext i32 %108 to i64
  %110 = getelementptr inbounds [2 x float], ptr %107, i64 %109
  %111 = getelementptr inbounds [2 x float], ptr %110, i64 0, i64 1
  %112 = load float, ptr %111, align 4, !tbaa !21
  store float %112, ptr %29, align 4, !tbaa !21
  call void @llvm.lifetime.start.p0(i64 4, ptr %30) #4
  %113 = load ptr, ptr %7, align 8, !tbaa !17
  %114 = load i32, ptr %27, align 4, !tbaa !19
  %115 = sext i32 %114 to i64
  %116 = getelementptr inbounds [2 x float], ptr %113, i64 %115
  %117 = getelementptr inbounds [2 x float], ptr %116, i64 0, i64 0
  %118 = load float, ptr %117, align 4, !tbaa !21
  store float %118, ptr %30, align 4, !tbaa !21
  call void @llvm.lifetime.start.p0(i64 4, ptr %31) #4
  %119 = load ptr, ptr %7, align 8, !tbaa !17
  %120 = load i32, ptr %27, align 4, !tbaa !19
  %121 = sext i32 %120 to i64
  %122 = getelementptr inbounds [2 x float], ptr %119, i64 %121
  %123 = getelementptr inbounds [2 x float], ptr %122, i64 0, i64 1
  %124 = load float, ptr %123, align 4, !tbaa !21
  store float %124, ptr %31, align 4, !tbaa !21
  %125 = load float, ptr %19, align 4, !tbaa !21
  %126 = load float, ptr %11, align 4, !tbaa !21
  %127 = fadd nsz float %126, %125
  store float %127, ptr %11, align 4, !tbaa !21
  %128 = load float, ptr %21, align 4, !tbaa !21
  %129 = load float, ptr %13, align 4, !tbaa !21
  %130 = fadd nsz float %129, %128
  store float %130, ptr %13, align 4, !tbaa !21
  %131 = load float, ptr %23, align 4, !tbaa !21
  %132 = load float, ptr %15, align 4, !tbaa !21
  %133 = fadd nsz float %132, %131
  store float %133, ptr %15, align 4, !tbaa !21
  %134 = load float, ptr %25, align 4, !tbaa !21
  %135 = load float, ptr %17, align 4, !tbaa !21
  %136 = fadd nsz float %135, %134
  store float %136, ptr %17, align 4, !tbaa !21
  %137 = load float, ptr %20, align 4, !tbaa !21
  %138 = load float, ptr %12, align 4, !tbaa !21
  %139 = fadd nsz float %138, %137
  store float %139, ptr %12, align 4, !tbaa !21
  %140 = load float, ptr %22, align 4, !tbaa !21
  %141 = load float, ptr %14, align 4, !tbaa !21
  %142 = fadd nsz float %141, %140
  store float %142, ptr %14, align 4, !tbaa !21
  %143 = load float, ptr %24, align 4, !tbaa !21
  %144 = load float, ptr %16, align 4, !tbaa !21
  %145 = fadd nsz float %144, %143
  store float %145, ptr %16, align 4, !tbaa !21
  %146 = load float, ptr %26, align 4, !tbaa !21
  %147 = load float, ptr %18, align 4, !tbaa !21
  %148 = fadd nsz float %147, %146
  store float %148, ptr %18, align 4, !tbaa !21
  %149 = load float, ptr %11, align 4, !tbaa !21
  %150 = load float, ptr %28, align 4, !tbaa !21
  %151 = load float, ptr %15, align 4, !tbaa !21
  %152 = load float, ptr %30, align 4, !tbaa !21
  %153 = fmul nsz float %151, %152
  %154 = call nsz float @llvm.fmuladd.f32(float %149, float %150, float %153)
  %155 = load float, ptr %12, align 4, !tbaa !21
  %156 = load float, ptr %29, align 4, !tbaa !21
  %157 = fneg nsz float %155
  %158 = call nsz float @llvm.fmuladd.f32(float %157, float %156, float %154)
  %159 = load float, ptr %16, align 4, !tbaa !21
  %160 = load float, ptr %31, align 4, !tbaa !21
  %161 = fneg nsz float %159
  %162 = call nsz float @llvm.fmuladd.f32(float %161, float %160, float %158)
  %163 = load ptr, ptr %6, align 8, !tbaa !17
  %164 = load i32, ptr %27, align 4, !tbaa !19
  %165 = sext i32 %164 to i64
  %166 = getelementptr inbounds [2 x float], ptr %163, i64 %165
  %167 = getelementptr inbounds [2 x float], ptr %166, i64 0, i64 0
  store float %162, ptr %167, align 4, !tbaa !21
  %168 = load float, ptr %11, align 4, !tbaa !21
  %169 = load float, ptr %29, align 4, !tbaa !21
  %170 = load float, ptr %15, align 4, !tbaa !21
  %171 = load float, ptr %31, align 4, !tbaa !21
  %172 = fmul nsz float %170, %171
  %173 = call nsz float @llvm.fmuladd.f32(float %168, float %169, float %172)
  %174 = load float, ptr %12, align 4, !tbaa !21
  %175 = load float, ptr %28, align 4, !tbaa !21
  %176 = call nsz float @llvm.fmuladd.f32(float %174, float %175, float %173)
  %177 = load float, ptr %16, align 4, !tbaa !21
  %178 = load float, ptr %30, align 4, !tbaa !21
  %179 = call nsz float @llvm.fmuladd.f32(float %177, float %178, float %176)
  %180 = load ptr, ptr %6, align 8, !tbaa !17
  %181 = load i32, ptr %27, align 4, !tbaa !19
  %182 = sext i32 %181 to i64
  %183 = getelementptr inbounds [2 x float], ptr %180, i64 %182
  %184 = getelementptr inbounds [2 x float], ptr %183, i64 0, i64 1
  store float %179, ptr %184, align 4, !tbaa !21
  %185 = load float, ptr %13, align 4, !tbaa !21
  %186 = load float, ptr %28, align 4, !tbaa !21
  %187 = load float, ptr %17, align 4, !tbaa !21
  %188 = load float, ptr %30, align 4, !tbaa !21
  %189 = fmul nsz float %187, %188
  %190 = call nsz float @llvm.fmuladd.f32(float %185, float %186, float %189)
  %191 = load float, ptr %14, align 4, !tbaa !21
  %192 = load float, ptr %29, align 4, !tbaa !21
  %193 = fneg nsz float %191
  %194 = call nsz float @llvm.fmuladd.f32(float %193, float %192, float %190)
  %195 = load float, ptr %18, align 4, !tbaa !21
  %196 = load float, ptr %31, align 4, !tbaa !21
  %197 = fneg nsz float %195
  %198 = call nsz float @llvm.fmuladd.f32(float %197, float %196, float %194)
  %199 = load ptr, ptr %7, align 8, !tbaa !17
  %200 = load i32, ptr %27, align 4, !tbaa !19
  %201 = sext i32 %200 to i64
  %202 = getelementptr inbounds [2 x float], ptr %199, i64 %201
  %203 = getelementptr inbounds [2 x float], ptr %202, i64 0, i64 0
  store float %198, ptr %203, align 4, !tbaa !21
  %204 = load float, ptr %13, align 4, !tbaa !21
  %205 = load float, ptr %29, align 4, !tbaa !21
  %206 = load float, ptr %17, align 4, !tbaa !21
  %207 = load float, ptr %31, align 4, !tbaa !21
  %208 = fmul nsz float %206, %207
  %209 = call nsz float @llvm.fmuladd.f32(float %204, float %205, float %208)
  %210 = load float, ptr %14, align 4, !tbaa !21
  %211 = load float, ptr %28, align 4, !tbaa !21
  %212 = call nsz float @llvm.fmuladd.f32(float %210, float %211, float %209)
  %213 = load float, ptr %18, align 4, !tbaa !21
  %214 = load float, ptr %30, align 4, !tbaa !21
  %215 = call nsz float @llvm.fmuladd.f32(float %213, float %214, float %212)
  %216 = load ptr, ptr %7, align 8, !tbaa !17
  %217 = load i32, ptr %27, align 4, !tbaa !19
  %218 = sext i32 %217 to i64
  %219 = getelementptr inbounds [2 x float], ptr %216, i64 %218
  %220 = getelementptr inbounds [2 x float], ptr %219, i64 0, i64 1
  store float %215, ptr %220, align 4, !tbaa !21
  call void @llvm.lifetime.end.p0(i64 4, ptr %31) #4
  call void @llvm.lifetime.end.p0(i64 4, ptr %30) #4
  call void @llvm.lifetime.end.p0(i64 4, ptr %29) #4
  call void @llvm.lifetime.end.p0(i64 4, ptr %28) #4
  br label %221

221:                                              ; preds = %100
  %222 = load i32, ptr %27, align 4, !tbaa !19
  %223 = add nsw i32 %222, 1
  store i32 %223, ptr %27, align 4, !tbaa !19
  br label %96, !llvm.loop !39

224:                                              ; preds = %96
  call void @llvm.lifetime.end.p0(i64 4, ptr %27) #4
  call void @llvm.lifetime.end.p0(i64 4, ptr %26) #4
  call void @llvm.lifetime.end.p0(i64 4, ptr %25) #4
  call void @llvm.lifetime.end.p0(i64 4, ptr %24) #4
  call void @llvm.lifetime.end.p0(i64 4, ptr %23) #4
  call void @llvm.lifetime.end.p0(i64 4, ptr %22) #4
  call void @llvm.lifetime.end.p0(i64 4, ptr %21) #4
  call void @llvm.lifetime.end.p0(i64 4, ptr %20) #4
  call void @llvm.lifetime.end.p0(i64 4, ptr %19) #4
  call void @llvm.lifetime.end.p0(i64 4, ptr %18) #4
  call void @llvm.lifetime.end.p0(i64 4, ptr %17) #4
  call void @llvm.lifetime.end.p0(i64 4, ptr %16) #4
  call void @llvm.lifetime.end.p0(i64 4, ptr %15) #4
  call void @llvm.lifetime.end.p0(i64 4, ptr %14) #4
  call void @llvm.lifetime.end.p0(i64 4, ptr %13) #4
  call void @llvm.lifetime.end.p0(i64 4, ptr %12) #4
  call void @llvm.lifetime.end.p0(i64 4, ptr %11) #4
  ret void
}