; Function Attrs: nofree norecurse nosync nounwind memory(argmem: readwrite) uwtable
define internal void @ps_stereo_interpolate_ipdopd_c(ptr noundef captures(none) %0, ptr noundef captures(none) %1, ptr noundef readonly captures(none) %2, ptr noundef readonly captures(none) %3, i32 noundef %4) #1 {
  %6 = load float, ptr %3, align 4, !tbaa !15
  %7 = getelementptr inbounds nuw i8, ptr %3, i64 16
  %8 = load float, ptr %7, align 4, !tbaa !15
  %9 = getelementptr inbounds nuw i8, ptr %3, i64 4
  %10 = load float, ptr %9, align 4, !tbaa !15
  %11 = getelementptr inbounds nuw i8, ptr %3, i64 20
  %12 = load float, ptr %11, align 4, !tbaa !15
  %13 = getelementptr inbounds nuw i8, ptr %3, i64 8
  %14 = load float, ptr %13, align 4, !tbaa !15
  %15 = getelementptr inbounds nuw i8, ptr %3, i64 24
  %16 = load float, ptr %15, align 4, !tbaa !15
  %17 = getelementptr inbounds nuw i8, ptr %3, i64 12
  %18 = load float, ptr %17, align 4, !tbaa !15
  %19 = getelementptr inbounds nuw i8, ptr %3, i64 28
  %20 = load float, ptr %19, align 4, !tbaa !15
  %21 = icmp sgt i32 %4, 0
  br i1 %21, label %.lr.ph.preheader, label %._crit_edge

.lr.ph.preheader:                                 ; preds = %5
  %22 = getelementptr inbounds nuw i8, ptr %2, i64 28
  %23 = load float, ptr %22, align 4, !tbaa !15
  %24 = getelementptr inbounds nuw i8, ptr %2, i64 12
  %25 = load float, ptr %24, align 4, !tbaa !15
  %26 = getelementptr inbounds nuw i8, ptr %2, i64 24
  %27 = load float, ptr %26, align 4, !tbaa !15
  %28 = getelementptr inbounds nuw i8, ptr %2, i64 8
  %29 = load float, ptr %28, align 4, !tbaa !15
  %30 = getelementptr inbounds nuw i8, ptr %2, i64 20
  %31 = load float, ptr %30, align 4, !tbaa !15
  %32 = getelementptr inbounds nuw i8, ptr %2, i64 4
  %33 = load float, ptr %32, align 4, !tbaa !15
  %34 = getelementptr inbounds nuw i8, ptr %2, i64 16
  %35 = load float, ptr %34, align 4, !tbaa !15
  %36 = load float, ptr %2, align 4, !tbaa !15
  %wide.trip.count = zext nneg i32 %4 to i64
  br label %.lr.ph

.lr.ph:                                           ; preds = %.lr.ph.preheader, %.lr.ph
  %indvars.iv = phi i64 [ 0, %.lr.ph.preheader ], [ %indvars.iv.next, %.lr.ph ]
  %.098 = phi float [ %36, %.lr.ph.preheader ], [ %45, %.lr.ph ]
  %.08297 = phi float [ %35, %.lr.ph.preheader ], [ %49, %.lr.ph ]
  %.08396 = phi float [ %33, %.lr.ph.preheader ], [ %46, %.lr.ph ]
  %.08495 = phi float [ %31, %.lr.ph.preheader ], [ %50, %.lr.ph ]
  %.08693 = phi float [ %29, %.lr.ph.preheader ], [ %47, %.lr.ph ]
  %.08792 = phi float [ %27, %.lr.ph.preheader ], [ %51, %.lr.ph ]
  %.08891 = phi float [ %25, %.lr.ph.preheader ], [ %48, %.lr.ph ]
  %.08990 = phi float [ %23, %.lr.ph.preheader ], [ %52, %.lr.ph ]
  %37 = getelementptr inbounds nuw [2 x float], ptr %0, i64 %indvars.iv
  %38 = load float, ptr %37, align 4, !tbaa !15
  %39 = getelementptr inbounds nuw i8, ptr %37, i64 4
  %40 = load float, ptr %39, align 4, !tbaa !15
  %41 = getelementptr inbounds nuw [2 x float], ptr %1, i64 %indvars.iv
  %42 = load float, ptr %41, align 4, !tbaa !15
  %43 = getelementptr inbounds nuw i8, ptr %41, i64 4
  %44 = load float, ptr %43, align 4, !tbaa !15
  %45 = fadd nsz float %6, %.098
  %46 = fadd nsz float %10, %.08396
  %47 = fadd nsz float %14, %.08693
  %48 = fadd nsz float %18, %.08891
  %49 = fadd nsz float %8, %.08297
  %50 = fadd nsz float %12, %.08495
  %51 = fadd nsz float %16, %.08792
  %52 = fadd nsz float %20, %.08990
  %53 = fmul nsz float %47, %42
  %54 = tail call nsz float @llvm.fmuladd.f32(float %45, float %38, float %53)
  %55 = fneg nsz float %49
  %56 = tail call nsz float @llvm.fmuladd.f32(float %55, float %40, float %54)
  %57 = fneg nsz float %51
  %58 = tail call nsz float @llvm.fmuladd.f32(float %57, float %44, float %56)
  store float %58, ptr %37, align 4, !tbaa !15
  %59 = fmul nsz float %47, %44
  %60 = tail call nsz float @llvm.fmuladd.f32(float %45, float %40, float %59)
  %61 = tail call nsz float @llvm.fmuladd.f32(float %49, float %38, float %60)
  %62 = tail call nsz float @llvm.fmuladd.f32(float %51, float %42, float %61)
  store float %62, ptr %39, align 4, !tbaa !15
  %63 = fmul nsz float %48, %42
  %64 = tail call nsz float @llvm.fmuladd.f32(float %46, float %38, float %63)
  %65 = fneg nsz float %50
  %66 = tail call nsz float @llvm.fmuladd.f32(float %65, float %40, float %64)
  %67 = fneg nsz float %52
  %68 = tail call nsz float @llvm.fmuladd.f32(float %67, float %44, float %66)
  store float %68, ptr %41, align 4, !tbaa !15
  %69 = fmul nsz float %48, %44
  %70 = tail call nsz float @llvm.fmuladd.f32(float %46, float %40, float %69)
  %71 = tail call nsz float @llvm.fmuladd.f32(float %50, float %38, float %70)
  %72 = tail call nsz float @llvm.fmuladd.f32(float %52, float %42, float %71)
  store float %72, ptr %43, align 4, !tbaa !15
  %indvars.iv.next = add nuw nsw i64 %indvars.iv, 1
  %exitcond.not = icmp eq i64 %indvars.iv.next, %wide.trip.count
  br i1 %exitcond.not, label %._crit_edge, label %.lr.ph, !llvm.loop !31

._crit_edge:                                      ; preds = %.lr.ph, %5
  ret void
}